target datalayout = "e-m:e-p270:32:32-p271:32:32-p272:64:64-i64:64-i128:128-f80:128-n8:16:32:64-S128"
target triple = "x86_64-pc-linux-gnu"

%struct._zend_array = type { %struct._zend_refcounted_h, %union.anon.0, i32, %union.anon.1, i32, i32, i32, i32, i64, ptr }
%struct._zend_refcounted_h = type { i32, %union.anon }
%union.anon = type { i32 }
%union.anon.0 = type { i32 }
%union.anon.1 = type { ptr }
%struct._zval_struct = type { %union._zend_value, %union.anon.3, %union.anon.6 }
%union._zend_value = type { i64 }
%union.anon.3 = type { i32 }
%union.anon.6 = type { i32 }
%struct._Bucket = type { %struct._zval_struct, i64, ptr }

; Function Attrs: nounwind uwtable
define i32 @zend_hash_move_forward_ex(ptr noundef %0, ptr noundef %1) #0 {
  %3 = alloca ptr, align 8
  %4 = alloca ptr, align 8
  %5 = alloca ptr, align 8
  %6 = alloca i32, align 4
  %7 = alloca ptr, align 8
  %8 = alloca ptr, align 8
  %9 = alloca i32, align 4
  %10 = alloca ptr, align 8
  %11 = alloca ptr, align 8
  %12 = alloca i32, align 4
  store ptr %0, ptr %10, align 8
  store ptr %1, ptr %11, align 8
  %13 = load ptr, ptr %10, align 8
  %14 = load ptr, ptr %11, align 8
  %15 = load i32, ptr %14, align 4
  store ptr %13, ptr %5, align 8
  store i32 %15, ptr %6, align 4
  %16 = load ptr, ptr %5, align 8
  %17 = getelementptr inbounds %struct._zend_array, ptr %16, i32 0, i32 1
  %18 = load i32, ptr %17, align 8
  %19 = and i32 %18, 4
  %20 = icmp ne i32 %19, 0
  br i1 %20, label %21, label %46

21:                                               ; preds = %2
  br label %22

22:                                               ; preds = %42, %21
  %23 = load i32, ptr %6, align 4
  %24 = load ptr, ptr %5, align 8
  %25 = getelementptr inbounds %struct._zend_array, ptr %24, i32 0, i32 4
  %26 = load i32, ptr %25, align 8
  %27 = icmp ult i32 %23, %26
  br i1 %27, label %28, label %40

28:                                               ; preds = %22
  %29 = load ptr, ptr %5, align 8
  %30 = getelementptr inbounds %struct._zend_array, ptr %29, i32 0, i32 3
  %31 = load ptr, ptr %30, align 8
  %32 = load i32, ptr %6, align 4
  %33 = zext i32 %32 to i64
  %34 = getelementptr inbounds %struct._zval_struct, ptr %31, i64 %33
  store ptr %34, ptr %3, align 8
  %35 = load ptr, ptr %3, align 8
  %36 = getelementptr inbounds %struct._zval_struct, ptr %35, i32 0, i32 1
  %37 = load i8, ptr %36, align 8
  %38 = zext i8 %37 to i32
  %39 = icmp eq i32 %38, 0
  br label %40

40:                                               ; preds = %28, %22
  %41 = phi i1 [ false, %22 ], [ %39, %28 ]
  br i1 %41, label %42, label %45

42:                                               ; preds = %40
  %43 = load i32, ptr %6, align 4
  %44 = add i32 %43, 1
  store i32 %44, ptr %6, align 4
  br label %22

45:                                               ; preds = %40
  br label %71

46:                                               ; preds = %2
  br label %47

47:                                               ; preds = %67, %46
  %48 = load i32, ptr %6, align 4
  %49 = load ptr, ptr %5, align 8
  %50 = getelementptr inbounds %struct._zend_array, ptr %49, i32 0, i32 4
  %51 = load i32, ptr %50, align 8
  %52 = icmp ult i32 %48, %51
  br i1 %52, label %53, label %65

53:                                               ; preds = %47
  %54 = load ptr, ptr %5, align 8
  %55 = getelementptr inbounds %struct._zend_array, ptr %54, i32 0, i32 3
  %56 = load ptr, ptr %55, align 8
  %57 = load i32, ptr %6, align 4
  %58 = zext i32 %57 to i64
  %59 = getelementptr inbounds %struct._Bucket, ptr %56, i64 %58
  store ptr %59, ptr %4, align 8
  %60 = load ptr, ptr %4, align 8
  %61 = getelementptr inbounds %struct._zval_struct, ptr %60, i32 0, i32 1
  %62 = load i8, ptr %61, align 8
  %63 = zext i8 %62 to i32
  %64 = icmp eq i32 %63, 0
  br label %65

65:                                               ; preds = %53, %47
  %66 = phi i1 [ false, %47 ], [ %64, %53 ]
  br i1 %66, label %67, label %70

67:                                               ; preds = %65
  %68 = load i32, ptr %6, align 4
  %69 = add i32 %68, 1
  store i32 %69, ptr %6, align 4
  br label %47

70:                                               ; preds = %65
  br label %71

71:                                               ; preds = %70, %45
  %72 = load i32, ptr %6, align 4
  store i32 %72, ptr %12, align 4
  %73 = load i32, ptr %12, align 4
  %74 = load ptr, ptr %10, align 8
  %75 = getelementptr inbounds %struct._zend_array, ptr %74, i32 0, i32 4
  %76 = load i32, ptr %75, align 8
  %77 = icmp ult i32 %73, %76
  br i1 %77, label %78, label %145

78:                                               ; preds = %71
  %79 = load ptr, ptr %10, align 8
  %80 = getelementptr inbounds %struct._zend_array, ptr %79, i32 0, i32 1
  %81 = load i32, ptr %80, align 8
  %82 = and i32 %81, 4
  %83 = icmp ne i32 %82, 0
  br i1 %83, label %84, label %114

84:                                               ; preds = %78
  br label %85

85:                                               ; preds = %113, %84
  %86 = load i32, ptr %12, align 4
  %87 = add i32 %86, 1
  store i32 %87, ptr %12, align 4
  %88 = load i32, ptr %12, align 4
  %89 = load ptr, ptr %10, align 8
  %90 = getelementptr inbounds %struct._zend_array, ptr %89, i32 0, i32 4
  %91 = load i32, ptr %90, align 8
  %92 = icmp uge i32 %88, %91
  br i1 %92, label %93, label %98

93:                                               ; preds = %85
  %94 = load ptr, ptr %10, align 8
  %95 = getelementptr inbounds %struct._zend_array, ptr %94, i32 0, i32 4
  %96 = load i32, ptr %95, align 8
  %97 = load ptr, ptr %11, align 8
  store i32 %96, ptr %97, align 4
  store i32 0, ptr %9, align 4
  br label %146

98:                                               ; preds = %85
  %99 = load ptr, ptr %10, align 8
  %100 = getelementptr inbounds %struct._zend_array, ptr %99, i32 0, i32 3
  %101 = load ptr, ptr %100, align 8
  %102 = load i32, ptr %12, align 4
  %103 = zext i32 %102 to i64
  %104 = getelementptr inbounds %struct._zval_struct, ptr %101, i64 %103
  store ptr %104, ptr %7, align 8
  %105 = load ptr, ptr %7, align 8
  %106 = getelementptr inbounds %struct._zval_struct, ptr %105, i32 0, i32 1
  %107 = load i8, ptr %106, align 8
  %108 = zext i8 %107 to i32
  %109 = icmp ne i32 %108, 0
  br i1 %109, label %110, label %113

110:                                              ; preds = %98
  %111 = load i32, ptr %12, align 4
  %112 = load ptr, ptr %11, align 8
  store i32 %111, ptr %112, align 4
  store i32 0, ptr %9, align 4
  br label %146

113:                                              ; preds = %98
  br label %85

114:                                              ; preds = %78
  br label %115

115:                                              ; preds = %144, %114
  %116 = load i32, ptr %12, align 4
  %117 = add i32 %116, 1
  store i32 %117, ptr %12, align 4
  %118 = load i32, ptr %12, align 4
  %119 = load ptr, ptr %10, align 8
  %120 = getelementptr inbounds %struct._zend_array, ptr %119, i32 0, i32 4
  %121 = load i32, ptr %120, align 8
  %122 = icmp uge i32 %118, %121
  br i1 %122, label %123, label %128

123:                                              ; preds = %115
  %124 = load ptr, ptr %10, align 8
  %125 = getelementptr inbounds %struct._zend_array, ptr %124, i32 0, i32 4
  %126 = load i32, ptr %125, align 8
  %127 = load ptr, ptr %11, align 8
  store i32 %126, ptr %127, align 4
  store i32 0, ptr %9, align 4
  br label %146

128:                                              ; preds = %115
  %129 = load ptr, ptr %10, align 8
  %130 = getelementptr inbounds %struct._zend_array, ptr %129, i32 0, i32 3
  %131 = load ptr, ptr %130, align 8
  %132 = load i32, ptr %12, align 4
  %133 = zext i32 %132 to i64
  %134 = getelementptr inbounds %struct._Bucket, ptr %131, i64 %133
  %135 = getelementptr inbounds %struct._Bucket, ptr %134, i32 0, i32 0
  store ptr %135, ptr %8, align 8
  %136 = load ptr, ptr %8, align 8
  %137 = getelementptr inbounds %struct._zval_struct, ptr %136, i32 0, i32 1
  %138 = load i8, ptr %137, align 8
  %139 = zext i8 %138 to i32
  %140 = icmp ne i32 %139, 0
  br i1 %140, label %141, label %144

141:                                              ; preds = %128
  %142 = load i32, ptr %12, align 4
  %143 = load ptr, ptr %11, align 8
  store i32 %142, ptr %143, align 4
  store i32 0, ptr %9, align 4
  br label %146

144:                                              ; preds = %128
  br label %115

145:                                              ; preds = %71
  store i32 -1, ptr %9, align 4
  br label %146

146:                                              ; preds = %145, %141, %123, %110, %93
  %147 = load i32, ptr %9, align 4
  ret i32 %147
}