; Function Attrs: nofree norecurse nosync nounwind memory(read, argmem: readwrite, inaccessiblemem: none) uwtable
define noundef i32 @zend_hash_move_forward_ex(ptr nocapture noundef readonly %0, ptr nocapture noundef %1) local_unnamed_addr #19 {
  %3 = load i32, ptr %1, align 4
  %4 = getelementptr inbounds i8, ptr %0, i64 8
  %5 = load i32, ptr %4, align 8
  %6 = and i32 %5, 4
  %.not = icmp eq i32 %6, 0
  %7 = getelementptr inbounds i8, ptr %0, i64 24
  %8 = load i32, ptr %7, align 8
  %9 = icmp ult i32 %3, %8
  br i1 %.not, label %.preheader54, label %.preheader55

.preheader55:                                     ; preds = %2
  br i1 %9, label %.lr.ph, label %.critedge.thread

.lr.ph:                                           ; preds = %.preheader55
  %10 = getelementptr inbounds i8, ptr %0, i64 16
  %11 = load ptr, ptr %10, align 8
  %12 = zext i32 %3 to i64
  br label %16

.preheader54:                                     ; preds = %2
  br i1 %9, label %.lr.ph63, label %.critedge.thread

.lr.ph63:                                         ; preds = %.preheader54
  %13 = getelementptr inbounds i8, ptr %0, i64 16
  %14 = load ptr, ptr %13, align 8
  %15 = zext i32 %3 to i64
  br label %21

16:                                               ; preds = %.lr.ph, %20
  %indvars.iv = phi i64 [ %12, %.lr.ph ], [ %indvars.iv.next, %20 ]
  %17 = getelementptr inbounds %struct._zval_struct, ptr %11, i64 %indvars.iv, i32 1
  %18 = load i8, ptr %17, align 8
  %19 = icmp eq i8 %18, 0
  br i1 %19, label %20, label %.critedge

20:                                               ; preds = %16
  %indvars.iv.next = add nuw nsw i64 %indvars.iv, 1
  %lftr.wideiv = trunc i64 %indvars.iv.next to i32
  %exitcond.not = icmp eq i32 %8, %lftr.wideiv
  br i1 %exitcond.not, label %.critedge.thread, label %16

21:                                               ; preds = %.lr.ph63, %25
  %indvars.iv72 = phi i64 [ %15, %.lr.ph63 ], [ %indvars.iv.next73, %25 ]
  %22 = getelementptr inbounds %struct._Bucket, ptr %14, i64 %indvars.iv72, i32 0, i32 1
  %23 = load i8, ptr %22, align 8
  %24 = icmp eq i8 %23, 0
  br i1 %24, label %25, label %.critedge

25:                                               ; preds = %21
  %indvars.iv.next73 = add nuw nsw i64 %indvars.iv72, 1
  %lftr.wideiv75 = trunc i64 %indvars.iv.next73 to i32
  %exitcond76.not = icmp eq i32 %8, %lftr.wideiv75
  br i1 %exitcond76.not, label %.critedge.thread, label %21

.critedge:                                        ; preds = %16, %21
  %indvars.iv.lcssa.sink = phi i64 [ %indvars.iv72, %21 ], [ %indvars.iv, %16 ]
  %26 = trunc i64 %indvars.iv.lcssa.sink to i32
  %27 = icmp ugt i32 %8, %26
  br i1 %27, label %28, label %.critedge.thread

28:                                               ; preds = %.critedge
  %29 = getelementptr inbounds i8, ptr %0, i64 16
  %30 = and i64 %indvars.iv.lcssa.sink, 4294967295
  %31 = add i32 %8, -1
  %wide.trip.count84 = zext i32 %31 to i64
  br i1 %.not, label %.preheader, label %.preheader53

.preheader53:                                     ; preds = %28, %32
  %indvars.iv77 = phi i64 [ %indvars.iv.next78, %32 ], [ %30, %28 ]
  %exitcond80.not = icmp eq i64 %indvars.iv77, %wide.trip.count84
  br i1 %exitcond80.not, label %.critedge.thread.sink.split, label %32

32:                                               ; preds = %.preheader53
  %indvars.iv.next78 = add nuw nsw i64 %indvars.iv77, 1
  %33 = load ptr, ptr %29, align 8
  %34 = getelementptr inbounds %struct._zval_struct, ptr %33, i64 %indvars.iv.next78, i32 1
  %35 = load i8, ptr %34, align 8
  %.not52 = icmp eq i8 %35, 0
  br i1 %.not52, label %.preheader53, label %36

36:                                               ; preds = %32
  %37 = trunc i64 %indvars.iv.next78 to i32
  br label %.critedge.thread.sink.split

.preheader:                                       ; preds = %28, %38
  %indvars.iv81 = phi i64 [ %indvars.iv.next82, %38 ], [ %30, %28 ]
  %exitcond85.not = icmp eq i64 %indvars.iv81, %wide.trip.count84
  br i1 %exitcond85.not, label %.critedge.thread.sink.split, label %38

38:                                               ; preds = %.preheader
  %indvars.iv.next82 = add nuw nsw i64 %indvars.iv81, 1
  %39 = load ptr, ptr %29, align 8
  %40 = getelementptr inbounds %struct._Bucket, ptr %39, i64 %indvars.iv.next82, i32 0, i32 1
  %41 = load i8, ptr %40, align 8
  %.not50 = icmp eq i8 %41, 0
  br i1 %.not50, label %.preheader, label %42

42:                                               ; preds = %38
  %43 = trunc i64 %indvars.iv.next82 to i32
  br label %.critedge.thread.sink.split

.critedge.thread.sink.split:                      ; preds = %.preheader53, %.preheader, %36, %42
  %.sink = phi i32 [ %43, %42 ], [ %37, %36 ], [ %8, %.preheader ], [ %8, %.preheader53 ]
  store i32 %.sink, ptr %1, align 4
  br label %.critedge.thread

.critedge.thread:                                 ; preds = %20, %25, %.critedge.thread.sink.split, %.preheader55, %.preheader54, %.critedge
  %.043 = phi i32 [ -1, %.critedge ], [ -1, %.preheader54 ], [ -1, %.preheader55 ], [ 0, %.critedge.thread.sink.split ], [ -1, %25 ], [ -1, %20 ]
  ret i32 %.043
}